; Function Attrs: mustprogress uwtable
define hidden noundef i32 @_ZN6google8protobuf8compiler4java31ImmutableExtensionLiteGenerator24GenerateRegistrationCodeEPNS0_2io7PrinterE(ptr noundef nonnull align 8 dereferenceable(64) %this, ptr noundef %printer) unnamed_addr #3 align 2 personality ptr @__gxx_personality_v0 {
entry:
  %ref.tmp = alloca %"class.std::__cxx11::basic_string", align 8
  %scope_ = getelementptr inbounds i8, ptr %this, i64 24
  %descriptor_ = getelementptr inbounds i8, ptr %this, i64 8
  %0 = load ptr, ptr %descriptor_, align 8
  call void @_ZN6google8protobuf8compiler4java35UnderscoresToCamelCaseCheckReservedB5cxx11EPKNS0_15FieldDescriptorE(ptr nonnull sret(%"class.std::__cxx11::basic_string") align 8 %ref.tmp, ptr noundef %0)
  invoke void @_ZN6google8protobuf2io7Printer5PrintIJA6_cNSt7__cxx1112basic_stringIcSt11char_traitsIcESaIcEEEA5_cSA_EEEvSt17basic_string_viewIcS8_EDpRKT_(ptr noundef nonnull align 8 dereferenceable(256) %printer, i64 30, ptr nonnull @.str.4, ptr noundef nonnull align 1 dereferenceable(6) @.str.5, ptr noundef nonnull align 8 dereferenceable(32) %scope_, ptr noundef nonnull align 1 dereferenceable(5) @.str.3, ptr noundef nonnull align 8 dereferenceable(32) %ref.tmp)
          to label %invoke.cont unwind label %lpad

invoke.cont:                                      ; preds = %entry
  call void @_ZNSt7__cxx1112basic_stringIcSt11char_traitsIcESaIcEED1Ev(ptr noundef nonnull align 8 dereferenceable(32) %ref.tmp) #23
  ret i32 7

lpad:                                             ; preds = %entry
  %1 = landingpad { ptr, i32 }
          cleanup
  call void @_ZNSt7__cxx1112basic_stringIcSt11char_traitsIcESaIcEED1Ev(ptr noundef nonnull align 8 dereferenceable(32) %ref.tmp) #23
  resume { ptr, i32 } %1
}